; Function Attrs: nounwind uwtable
define noalias nonnull ptr @l_Lean_throwMaxRecDepthAt___at_Lean_Elab_Term_synthesizeSyntheticMVars_loop___spec__1___boxed(ptr noundef %0, ptr noundef %1, ptr noundef %2, ptr noundef %3, ptr noundef %4, ptr noundef %5, ptr noundef %6, ptr noundef %7) local_unnamed_addr #0 {
  %9 = load ptr, ptr @l_Lean_throwMaxRecDepthAt___at_Lean_Elab_Term_synthesizeSyntheticMVars_loop___spec__1___closed__6, align 8, !tbaa !10
  tail call void @lean_inc_heartbeat() #7
  %10 = tail call noalias ptr @mi_malloc_small(i64 noundef 24) #7
  %11 = icmp eq ptr %10, null
  br i1 %11, label %12, label %lean_alloc_ctor.exit.i

12:                                               ; preds = %8
  tail call void @lean_internal_panic_out_of_memory() #8
  unreachable

lean_alloc_ctor.exit.i:                           ; preds = %8
  %13 = getelementptr inbounds nuw i8, ptr %10, i64 4
  store i32 1, ptr %10, align 4, !tbaa !7
  store i32 131096, ptr %13, align 4
  %14 = getelementptr inbounds nuw i8, ptr %10, i64 8
  store ptr %0, ptr %14, align 8, !tbaa !10
  %15 = getelementptr inbounds nuw i8, ptr %10, i64 16
  store ptr %9, ptr %15, align 8, !tbaa !10
  tail call void @lean_inc_heartbeat() #7
  %16 = tail call noalias ptr @mi_malloc_small(i64 noundef 24) #7
  %17 = icmp eq ptr %16, null
  br i1 %17, label %18, label %l_Lean_throwMaxRecDepthAt___at_Lean_Elab_Term_synthesizeSyntheticMVars_loop___spec__1.exit

18:                                               ; preds = %lean_alloc_ctor.exit.i
  tail call void @lean_internal_panic_out_of_memory() #8
  unreachable

l_Lean_throwMaxRecDepthAt___at_Lean_Elab_Term_synthesizeSyntheticMVars_loop___spec__1.exit: ; preds = %lean_alloc_ctor.exit.i
  %19 = getelementptr inbounds nuw i8, ptr %16, i64 4
  store i32 1, ptr %16, align 4, !tbaa !7
  store i32 16908312, ptr %19, align 4
  %20 = getelementptr inbounds nuw i8, ptr %16, i64 8
  store ptr %10, ptr %20, align 8, !tbaa !10
  %21 = getelementptr inbounds nuw i8, ptr %16, i64 16
  store ptr %7, ptr %21, align 8, !tbaa !10
  %22 = ptrtoint ptr %6 to i64
  %23 = and i64 %22, 1
  %.not = icmp eq i64 %23, 0
  br i1 %.not, label %24, label %lean_dec.exit19

24:                                               ; preds = %l_Lean_throwMaxRecDepthAt___at_Lean_Elab_Term_synthesizeSyntheticMVars_loop___spec__1.exit
  %25 = load i32, ptr %6, align 4, !tbaa !7
  %26 = icmp sgt i32 %25, 1
  br i1 %26, label %27, label %29, !prof !12

27:                                               ; preds = %24
  %28 = add nsw i32 %25, -1
  store i32 %28, ptr %6, align 4, !tbaa !7
  br label %lean_dec.exit19

29:                                               ; preds = %24
  %.not.i = icmp eq i32 %25, 0
  br i1 %.not.i, label %lean_dec.exit19, label %30

30:                                               ; preds = %29
  tail call void @lean_dec_ref_cold(ptr noundef nonnull %6) #7
  br label %lean_dec.exit19

lean_dec.exit19:                                  ; preds = %30, %29, %27, %l_Lean_throwMaxRecDepthAt___at_Lean_Elab_Term_synthesizeSyntheticMVars_loop___spec__1.exit
  %31 = ptrtoint ptr %5 to i64
  %32 = and i64 %31, 1
  %.not30 = icmp eq i64 %32, 0
  br i1 %.not30, label %33, label %lean_dec.exit18

33:                                               ; preds = %lean_dec.exit19
  %34 = load i32, ptr %5, align 4, !tbaa !7
  %35 = icmp sgt i32 %34, 1
  br i1 %35, label %36, label %38, !prof !12

36:                                               ; preds = %33
  %37 = add nsw i32 %34, -1
  store i32 %37, ptr %5, align 4, !tbaa !7
  br label %lean_dec.exit18

38:                                               ; preds = %33
  %.not.i20 = icmp eq i32 %34, 0
  br i1 %.not.i20, label %lean_dec.exit18, label %39

39:                                               ; preds = %38
  tail call void @lean_dec_ref_cold(ptr noundef nonnull %5) #7
  br label %lean_dec.exit18

lean_dec.exit18:                                  ; preds = %39, %38, %36, %lean_dec.exit19
  %40 = ptrtoint ptr %4 to i64
  %41 = and i64 %40, 1
  %.not31 = icmp eq i64 %41, 0
  br i1 %.not31, label %42, label %lean_dec.exit17

42:                                               ; preds = %lean_dec.exit18
  %43 = load i32, ptr %4, align 4, !tbaa !7
  %44 = icmp sgt i32 %43, 1
  br i1 %44, label %45, label %47, !prof !12

45:                                               ; preds = %42
  %46 = add nsw i32 %43, -1
  store i32 %46, ptr %4, align 4, !tbaa !7
  br label %lean_dec.exit17

47:                                               ; preds = %42
  %.not.i22 = icmp eq i32 %43, 0
  br i1 %.not.i22, label %lean_dec.exit17, label %48

48:                                               ; preds = %47
  tail call void @lean_dec_ref_cold(ptr noundef nonnull %4) #7
  br label %lean_dec.exit17

lean_dec.exit17:                                  ; preds = %48, %47, %45, %lean_dec.exit18
  %49 = ptrtoint ptr %3 to i64
  %50 = and i64 %49, 1
  %.not32 = icmp eq i64 %50, 0
  br i1 %.not32, label %51, label %lean_dec.exit16

51:                                               ; preds = %lean_dec.exit17
  %52 = load i32, ptr %3, align 4, !tbaa !7
  %53 = icmp sgt i32 %52, 1
  br i1 %53, label %54, label %56, !prof !12

54:                                               ; preds = %51
  %55 = add nsw i32 %52, -1
  store i32 %55, ptr %3, align 4, !tbaa !7
  br label %lean_dec.exit16

56:                                               ; preds = %51
  %.not.i24 = icmp eq i32 %52, 0
  br i1 %.not.i24, label %lean_dec.exit16, label %57

57:                                               ; preds = %56
  tail call void @lean_dec_ref_cold(ptr noundef nonnull %3) #7
  br label %lean_dec.exit16

lean_dec.exit16:                                  ; preds = %57, %56, %54, %lean_dec.exit17
  %58 = ptrtoint ptr %2 to i64
  %59 = and i64 %58, 1
  %.not33 = icmp eq i64 %59, 0
  br i1 %.not33, label %60, label %lean_dec.exit15

60:                                               ; preds = %lean_dec.exit16
  %61 = load i32, ptr %2, align 4, !tbaa !7
  %62 = icmp sgt i32 %61, 1
  br i1 %62, label %63, label %65, !prof !12

63:                                               ; preds = %60
  %64 = add nsw i32 %61, -1
  store i32 %64, ptr %2, align 4, !tbaa !7
  br label %lean_dec.exit15

65:                                               ; preds = %60
  %.not.i26 = icmp eq i32 %61, 0
  br i1 %.not.i26, label %lean_dec.exit15, label %66

66:                                               ; preds = %65
  tail call void @lean_dec_ref_cold(ptr noundef nonnull %2) #7
  br label %lean_dec.exit15

lean_dec.exit15:                                  ; preds = %66, %65, %63, %lean_dec.exit16
  %67 = ptrtoint ptr %1 to i64
  %68 = and i64 %67, 1
  %.not34 = icmp eq i64 %68, 0
  br i1 %.not34, label %69, label %lean_dec.exit

69:                                               ; preds = %lean_dec.exit15
  %70 = load i32, ptr %1, align 4, !tbaa !7
  %71 = icmp sgt i32 %70, 1
  br i1 %71, label %72, label %74, !prof !12

72:                                               ; preds = %69
  %73 = add nsw i32 %70, -1
  store i32 %73, ptr %1, align 4, !tbaa !7
  br label %lean_dec.exit

74:                                               ; preds = %69
  %.not.i28 = icmp eq i32 %70, 0
  br i1 %.not.i28, label %lean_dec.exit, label %75

75:                                               ; preds = %74
  tail call void @lean_dec_ref_cold(ptr noundef nonnull %1) #7
  br label %lean_dec.exit

lean_dec.exit:                                    ; preds = %75, %74, %72, %lean_dec.exit15
  ret ptr %16
}